; Function Attrs: nounwind uwtable
define hidden void @timelib_rel_time_dtor(ptr noundef %0) local_unnamed_addr #1 {
  %.not = icmp eq ptr %0, null
  br i1 %.not, label %3, label %2

2:                                                ; preds = %1
  tail call void @_efree(ptr noundef nonnull %0) #18
  br label %3

3:                                                ; preds = %2, %1
  ret void
}